; Function Attrs: mustprogress nofree norecurse nosync nounwind willreturn memory(argmem: read) uwtable
define noundef ptr @_ZN5folly6netops9Msgheader24getFirstOrNextCmsgHeaderEP7cmsghdr(ptr noundef nonnull readonly align 8 captures(none) dereferenceable(56) %0, ptr noundef readonly captures(address, ret: address, provenance) %1) local_unnamed_addr #9 align 2 {
  %.not = icmp eq ptr %1, null
  br i1 %.not, label %23, label %3

3:                                                ; preds = %2
  %4 = load i64, ptr %1, align 8, !tbaa !27
  %5 = icmp ult i64 %4, 16
  br i1 %5, label %_ZN5folly6netops9Msgheader11cmsgNextHrdEP7cmsghdr.exit, label %6

6:                                                ; preds = %3
  %7 = add i64 %4, 7
  %8 = and i64 %7, -8
  %9 = getelementptr inbounds nuw i8, ptr %1, i64 %8
  %10 = getelementptr inbounds nuw i8, ptr %9, i64 16
  %11 = getelementptr inbounds nuw i8, ptr %0, i64 32
  %12 = load ptr, ptr %11, align 8, !tbaa !28
  %13 = getelementptr inbounds nuw i8, ptr %0, i64 40
  %14 = load i64, ptr %13, align 8, !tbaa !29
  %15 = getelementptr inbounds nuw i8, ptr %12, i64 %14
  %16 = icmp ugt ptr %10, %15
  br i1 %16, label %_ZN5folly6netops9Msgheader11cmsgNextHrdEP7cmsghdr.exit, label %17

17:                                               ; preds = %6
  %18 = load i64, ptr %9, align 8, !tbaa !27
  %19 = add i64 %18, 7
  %20 = and i64 %19, -8
  %21 = getelementptr inbounds nuw i8, ptr %9, i64 %20
  %22 = icmp ugt ptr %21, %15
  %spec.select.i.i = select i1 %22, ptr null, ptr %9
  br label %_ZN5folly6netops9Msgheader11cmsgNextHrdEP7cmsghdr.exit

23:                                               ; preds = %2
  %24 = getelementptr inbounds nuw i8, ptr %0, i64 40
  %25 = load i64, ptr %24, align 8, !tbaa !25
  %26 = icmp ugt i64 %25, 15
  %27 = getelementptr inbounds nuw i8, ptr %0, i64 32
  %28 = load ptr, ptr %27, align 8
  %29 = select i1 %26, ptr %28, ptr null
  br label %_ZN5folly6netops9Msgheader11cmsgNextHrdEP7cmsghdr.exit

_ZN5folly6netops9Msgheader11cmsgNextHrdEP7cmsghdr.exit: ; preds = %17, %6, %3, %23
  %30 = phi ptr [ %29, %23 ], [ null, %3 ], [ null, %6 ], [ %spec.select.i.i, %17 ]
  ret ptr %30
}